ccopy_reg
_reconstructor
p0
(cgoogle.oauth2.credentials
Credentials
p1
c__builtin__
object
p2
Ntp3
Rp4
(dp5
S'_token_uri'
p6
Vhttps://oauth2.googleapis.com/token
p7
sS'_client_secret'
p8
V2WzaxlgFYfwVpCob1oQFuT6p
p9
sS'_id_token'
p10
NsS'token'
p11
Vya29.GlvYBnUTi2uzYcQLO09ZnMmxNDk-kzRLFtT2hGX5jN2lCtLMuBrrtx_ytH08Imt42ouBt6c6DdnA7DN6nYiBLrOuuWpt55of9whDKB0-WKpJrXiZLZOB9EI7joei
p12
sS'_refresh_token'
p13
V1/UEpcBJr52CwsBg4MytQA40WhKHUjwl8eBnihvH4E-q6DM49g2GJ8EtasXN_Yoodm
p14
sS'_scopes'
p15
(lp16
S'https://www.googleapis.com/auth/spreadsheets'
p17
asS'_client_id'
p18
V1063995527605-rfafptoovst33h7l7hn5mbokdsqr20ec.apps.googleusercontent.com
p19
sS'expiry'
p20
cdatetime
datetime
p21
(S'\x07\xe3\x03\x1a\x0c;1\x02\x1fO'
p22
tp23
Rp24
sb.